ccopy_reg
_reconstructor
p0
(csuffix_tree
SuffixTree
p1
c__builtin__
object
p2
Ntp3
Rp4
(dp5
S'string'
p6
S'ACGTTATATATATATATATACGCGCGCGCGCGCGCGAGAGAAGAGAGAACGTTATATATATATATATACGCGCGCGCGCGCGCGAGAGAAGAGAGAACGTTATATATATATATATACGCGCGCGCGCGCGCGAGAGAAGAGAGAACGTTATATATATATATATACGCGCGCGCGCGCGCGAGAGAAGAGAGAACGTTATATATATATATATACGCGCGCGCGCGCGCGAGAGAAGAGAGAACGTTATATATATATATATACGCGCGCGCGCGCGCGAGAGAAGAGAGAACGTTATATATATATATATACGCGCGCGCGCGCGCGAGAGAAGAGAGAACGTTATATATATATATATACGCGCGCGCGCGCGCGAGAGAAGAGAGAACGTTATATATATATATATACGCGCGCGCGCGCGCGAGAGAAGAGAGAACGTTATATATATATATATACGCGCGCGCGCGCGCGAGAGAAGAGAGAACGTTATATATATATATATACGCGCGCGCGCGCGCGAGAGAAGAGAGAACGTTATATATATATATATACGCGCGCGCGCGCGCGAGAGAAGAGAGAACGTTATATATATATATATACGCGCGCGCGCGCGCGAGAGAAGAGAGAACGTTATATATATATATATACGCGCGCGCGCGCGCGAGAGAAGAGAGAACGTTATATATATATATATACGCGCGCGCGCGCGCGAGAGAAGAGAGAACGTTATATATATATATATACGCGCGCGCGCGCGCGAGAGAAGAGAGAACGTTATATATATATATATACGCGCGCGCGCGCGCGAGAGAAGAGAGAACGTTATATATATATATATACGCGCGCGCGCGCGCGAGAGAAGAGAGA'
p7
sS'case_insensitive'
p8
I00
sS'N'
p9
I863
sS'edges'
p10
(dp11
(I33
S'C'
p12
tp13
g0
(csuffix_tree
Edge
p14
g2
Ntp15
Rp16
(dp17
S'first_char_index'
p18
I20
sS'last_char_index'
p19
I863
sS'dest_node_index'
p20
I34
sS'source_node_index'
p21
I33
sbs(I41
S'A'
p22
tp23
g0
(g14
g2
Ntp24
Rp25
(dp26
g18
I36
sg19
I863
sg20
I42
sg21
I41
sbs(I0
g22
tp27
g0
(g14
g2
Ntp28
Rp29
(dp30
g18
I0
sg19
I0
sg20
I7
sg21
I0
sbs(I13
g12
tp31
g0
(g14
g2
Ntp32
Rp33
(dp34
g18
I20
sg19
I863
sg20
I14
sg21
I13
sbs(I63
g22
tp35
g0
(g14
g2
Ntp36
Rp37
(dp38
g18
I36
sg19
I863
sg20
I64
sg21
I63
sbs(I68
g22
tp39
g0
(g14
g2
Ntp40
Rp41
(dp42
g18
I41
sg19
I41
sg20
I81
sg21
I68
sbs(I45
g12
tp43
g0
(g14
g2
Ntp44
Rp45
(dp46
g18
I32
sg19
I33
sg20
I41
sg21
I45
sbs(I17
S'T'
p47
tp48
g0
(g14
g2
Ntp49
Rp50
(dp51
g18
I14
sg19
I15
sg20
I13
sg21
I17
sbs(I37
g47
tp52
g0
(g14
g2
Ntp53
Rp54
(dp55
g18
I3
sg19
I863
sg20
I2
sg21
I37
sbs(I87
S'G'
p56
tp57
g0
(g14
g2
Ntp58
Rp59
(dp60
g18
I42
sg19
I863
sg20
I74
sg21
I87
sbs(I0
g12
tp61
g0
(g14
g2
Ntp62
Rp63
(dp64
g18
I1
sg19
I2
sg20
I37
sg21
I0
sbs(I85
g12
tp65
g0
(g14
g2
Ntp66
Rp67
(dp68
g18
I49
sg19
I863
sg20
I86
sg21
I85
sbs(I83
g12
tp69
g0
(g14
g2
Ntp70
Rp71
(dp72
g18
I49
sg19
I863
sg20
I84
sg21
I83
sbs(I63
g12
tp73
g0
(g14
g2
Ntp74
Rp75
(dp76
g18
I24
sg19
I25
sg20
I59
sg21
I63
sbs(I57
g12
tp77
g0
(g14
g2
Ntp78
Rp79
(dp80
g18
I26
sg19
I27
sg20
I53
sg21
I57
sbs(I27
g12
tp81
g0
(g14
g2
Ntp82
Rp83
(dp84
g18
I20
sg19
I863
sg20
I28
sg21
I27
sbs(I37
g12
tp85
g0
(g14
g2
Ntp86
Rp87
(dp88
g18
I22
sg19
I23
sg20
I61
sg21
I37
sbs(I7
g12
tp89
g0
(g14
g2
Ntp90
Rp91
(dp92
g18
I1
sg19
I2
sg20
I35
sg21
I7
sbs(I33
g47
tp93
g0
(g14
g2
Ntp94
Rp95
(dp96
g18
I6
sg19
I7
sg20
I29
sg21
I33
sbs(I39
g47
tp97
g0
(g14
g2
Ntp98
Rp99
(dp100
g18
I3
sg19
I863
sg20
I3
sg21
I39
sbs(I45
g22
tp101
g0
(g14
g2
Ntp102
Rp103
(dp104
g18
I36
sg19
I863
sg20
I46
sg21
I45
sbs(I51
g22
tp105
g0
(g14
g2
Ntp106
Rp107
(dp108
g18
I36
sg19
I863
sg20
I52
sg21
I51
sbs(I19
g47
tp109
g0
(g14
g2
Ntp110
Rp111
(dp112
g18
I14
sg19
I15
sg20
I15
sg21
I19
sbs(I29
g47
tp113
g0
(g14
g2
Ntp114
Rp115
(dp116
g18
I8
sg19
I9
sg20
I25
sg21
I29
sbs(I19
g12
tp117
g0
(g14
g2
Ntp118
Rp119
(dp120
g18
I20
sg19
I863
sg20
I20
sg21
I19
sbs(I37
g22
tp121
g0
(g14
g2
Ntp122
Rp123
(dp124
g18
I36
sg19
I863
sg20
I65
sg21
I37
sbs(I85
g56
tp125
g0
(g14
g2
Ntp126
Rp127
(dp128
g18
I42
sg19
I863
sg20
I73
sg21
I85
sbs(I39
g22
tp129
g0
(g14
g2
Ntp130
Rp131
(dp132
g18
I36
sg19
I36
sg20
I72
sg21
I39
sbs(I15
g47
tp133
g0
(g14
g2
Ntp134
Rp135
(dp136
g18
I16
sg19
I17
sg20
I11
sg21
I15
sbs(I87
g12
tp137
g0
(g14
g2
Ntp138
Rp139
(dp140
g18
I49
sg19
I863
sg20
I88
sg21
I87
sbs(I0
g56
tp141
g0
(g14
g2
Ntp142
Rp143
(dp144
g18
I2
sg19
I2
sg20
I39
sg21
I0
sbs(I51
g12
tp145
g0
(g14
g2
Ntp146
Rp147
(dp148
g18
I30
sg19
I31
sg20
I47
sg21
I51
sbs(I61
g12
tp149
g0
(g14
g2
Ntp150
Rp151
(dp152
g18
I24
sg19
I25
sg20
I57
sg21
I61
sbs(I31
g12
tp153
g0
(g14
g2
Ntp154
Rp155
(dp156
g18
I20
sg19
I863
sg20
I32
sg21
I31
sbs(I25
g12
tp157
g0
(g14
g2
Ntp158
Rp159
(dp160
g18
I20
sg19
I863
sg20
I26
sg21
I25
sbs(I83
g56
tp161
g0
(g14
g2
Ntp162
Rp163
(dp164
g18
I42
sg19
I863
sg20
I71
sg21
I83
sbs(I75
g22
tp165
g0
(g14
g2
Ntp166
Rp167
(dp168
g18
I41
sg19
I41
sg20
I79
sg21
I75
sbs(I55
g22
tp169
g0
(g14
g2
Ntp170
Rp171
(dp172
g18
I36
sg19
I863
sg20
I56
sg21
I55
sbs(I7
g22
tp173
g0
(g14
g2
Ntp174
Rp175
(dp176
g18
I41
sg19
I41
sg20
I87
sg21
I7
sbs(I13
g47
tp177
g0
(g14
g2
Ntp178
Rp179
(dp180
g18
I16
sg19
I17
sg20
I9
sg21
I13
sbs(I61
g22
tp181
g0
(g14
g2
Ntp182
Rp183
(dp184
g18
I36
sg19
I863
sg20
I62
sg21
I61
sbs(I35
g47
tp185
g0
(g14
g2
Ntp186
Rp187
(dp188
g18
I3
sg19
I863
sg20
I1
sg21
I35
sbs(I79
g56
tp189
g0
(g14
g2
Ntp190
Rp191
(dp192
g18
I42
sg19
I863
sg20
I67
sg21
I79
sbs(I5
g22
tp193
g0
(g14
g2
Ntp194
Rp195
(dp196
g18
I5
sg19
I5
sg20
I33
sg21
I5
sbs(I72
g22
tp197
g0
(g14
g2
Ntp198
Rp199
(dp200
g18
I41
sg19
I41
sg20
I85
sg21
I72
sbs(I47
g22
tp201
g0
(g14
g2
Ntp202
Rp203
(dp204
g18
I36
sg19
I863
sg20
I48
sg21
I47
sbs(I55
g12
tp205
g0
(g14
g2
Ntp206
Rp207
(dp208
g18
I28
sg19
I29
sg20
I51
sg21
I55
sbs(I49
g12
tp209
g0
(g14
g2
Ntp210
Rp211
(dp212
g18
I30
sg19
I31
sg20
I45
sg21
I49
sbs(I29
g12
tp213
g0
(g14
g2
Ntp214
Rp215
(dp216
g18
I20
sg19
I863
sg20
I30
sg21
I29
sbs(I53
g22
tp217
g0
(g14
g2
Ntp218
Rp219
(dp220
g18
I36
sg19
I863
sg20
I54
sg21
I53
sbs(I25
g47
tp221
g0
(g14
g2
Ntp222
Rp223
(dp224
g18
I10
sg19
I11
sg20
I21
sg21
I25
sbs(I31
g47
tp225
g0
(g14
g2
Ntp226
Rp227
(dp228
g18
I8
sg19
I9
sg20
I27
sg21
I31
sbs(I43
g22
tp229
g0
(g14
g2
Ntp230
Rp231
(dp232
g18
I36
sg19
I863
sg20
I44
sg21
I43
sbs(I81
g12
tp233
g0
(g14
g2
Ntp234
Rp235
(dp236
g18
I49
sg19
I863
sg20
I82
sg21
I81
sbs(I47
g12
tp237
g0
(g14
g2
Ntp238
Rp239
(dp240
g18
I32
sg19
I33
sg20
I43
sg21
I47
sbs(I27
g47
tp241
g0
(g14
g2
Ntp242
Rp243
(dp244
g18
I10
sg19
I11
sg20
I23
sg21
I27
sbs(I49
g22
tp245
g0
(g14
g2
Ntp246
Rp247
(dp248
g18
I36
sg19
I863
sg20
I50
sg21
I49
sbs(I21
g12
tp249
g0
(g14
g2
Ntp250
Rp251
(dp252
g18
I20
sg19
I863
sg20
I22
sg21
I21
sbs(I70
g22
tp253
g0
(g14
g2
Ntp254
Rp255
(dp256
g18
I41
sg19
I41
sg20
I83
sg21
I70
sbs(I77
g56
tp257
g0
(g14
g2
Ntp258
Rp259
(dp260
g18
I42
sg19
I863
sg20
I66
sg21
I77
sbs(I23
g12
tp261
g0
(g14
g2
Ntp262
Rp263
(dp264
g18
I20
sg19
I863
sg20
I24
sg21
I23
sbs(I0
g47
tp265
g0
(g14
g2
Ntp266
Rp267
(dp268
g18
I3
sg19
I3
sg20
I5
sg21
I0
sbs(I79
g12
tp269
g0
(g14
g2
Ntp270
Rp271
(dp272
g18
I49
sg19
I863
sg20
I80
sg21
I79
sbs(I9
g47
tp273
g0
(g14
g2
Ntp274
Rp275
(dp276
g18
I18
sg19
I863
sg20
I6
sg21
I9
sbs(I43
g12
tp277
g0
(g14
g2
Ntp278
Rp279
(dp280
g18
I34
sg19
I863
sg20
I40
sg21
I43
sbs(I53
g12
tp281
g0
(g14
g2
Ntp282
Rp283
(dp284
g18
I28
sg19
I29
sg20
I49
sg21
I53
sbs(I57
g22
tp285
g0
(g14
g2
Ntp286
Rp287
(dp288
g18
I36
sg19
I863
sg20
I58
sg21
I57
sbs(I17
g12
tp289
g0
(g14
g2
Ntp290
Rp291
(dp292
g18
I20
sg19
I863
sg20
I18
sg21
I17
sbs(I75
g56
tp293
g0
(g14
g2
Ntp294
Rp295
(dp296
g18
I46
sg19
I863
sg20
I76
sg21
I75
sbs(I70
g56
tp297
g0
(g14
g2
Ntp298
Rp299
(dp300
g18
I39
sg19
I40
sg20
I75
sg21
I70
sbs(I5
g47
tp301
g0
(g14
g2
Ntp302
Rp303
(dp304
g18
I4
sg19
I863
sg20
I4
sg21
I5
sbs(I11
g47
tp305
g0
(g14
g2
Ntp306
Rp307
(dp308
g18
I18
sg19
I863
sg20
I8
sg21
I11
sbs(I35
g12
tp309
g0
(g14
g2
Ntp310
Rp311
(dp312
g18
I22
sg19
I863
sg20
I36
sg21
I35
sbs(I81
g56
tp313
g0
(g14
g2
Ntp314
Rp315
(dp316
g18
I42
sg19
I863
sg20
I69
sg21
I81
sbs(I15
g12
tp317
g0
(g14
g2
Ntp318
Rp319
(dp320
g18
I20
sg19
I863
sg20
I16
sg21
I15
sbs(I9
g12
tp321
g0
(g14
g2
Ntp322
Rp323
(dp324
g18
I20
sg19
I863
sg20
I10
sg21
I9
sbs(I72
g56
tp325
g0
(g14
g2
Ntp326
Rp327
(dp328
g18
I37
sg19
I38
sg20
I68
sg21
I72
sbs(I11
g12
tp329
g0
(g14
g2
Ntp330
Rp331
(dp332
g18
I20
sg19
I863
sg20
I12
sg21
I11
sbs(I59
g22
tp333
g0
(g14
g2
Ntp334
Rp335
(dp336
g18
I36
sg19
I863
sg20
I60
sg21
I59
sbs(I7
g47
tp337
g0
(g14
g2
Ntp338
Rp339
(dp340
g18
I6
sg19
I7
sg20
I31
sg21
I7
sbs(I77
g12
tp341
g0
(g14
g2
Ntp342
Rp343
(dp344
g18
I49
sg19
I863
sg20
I78
sg21
I77
sbs(I21
g47
tp345
g0
(g14
g2
Ntp346
Rp347
(dp348
g18
I12
sg19
I13
sg20
I17
sg21
I21
sbs(I41
g12
tp349
g0
(g14
g2
Ntp350
Rp351
(dp352
g18
I34
sg19
I863
sg20
I38
sg21
I41
sbs(I68
g56
tp353
g0
(g14
g2
Ntp354
Rp355
(dp356
g18
I39
sg19
I41
sg20
I77
sg21
I68
sbs(I7
g56
tp357
g0
(g14
g2
Ntp358
Rp359
(dp360
g18
I37
sg19
I38
sg20
I70
sg21
I7
sbs(I23
g47
tp361
g0
(g14
g2
Ntp362
Rp363
(dp364
g18
I12
sg19
I13
sg20
I19
sg21
I23
sbs(I59
g12
tp365
g0
(g14
g2
Ntp366
Rp367
(dp368
g18
I26
sg19
I27
sg20
I55
sg21
I59
sbs(I39
g12
tp369
g0
(g14
g2
Ntp370
Rp371
(dp372
g18
I22
sg19
I23
sg20
I63
sg21
I39
sbssS'active'
p373
g0
(csuffix_tree
Suffix
p374
g2
Ntp375
Rp376
(dp377
g18
I51
sg19
I863
sg21
I35
sbsS'nodes'
p378
(lp379
g0
(csuffix_tree
Node
p380
g2
Ntp381
Rp382
(dp383
S'suffix_node'
p384
I-1
sbag0
(g380
g2
Ntp385
Rp386
(dp387
g384
I-1
sbag0
(g380
g2
Ntp388
Rp389
(dp390
g384
I-1
sbag0
(g380
g2
Ntp391
Rp392
(dp393
g384
I-1
sbag0
(g380
g2
Ntp394
Rp395
(dp396
g384
I-1
sbag0
(g380
g2
Ntp397
Rp398
(dp399
g384
I0
sbag0
(g380
g2
Ntp400
Rp401
(dp402
g384
I-1
sbag0
(g380
g2
Ntp403
Rp404
(dp405
g384
I0
sbag0
(g380
g2
Ntp406
Rp407
(dp408
g384
I-1
sbag0
(g380
g2
Ntp409
Rp410
(dp411
g384
I11
sbag0
(g380
g2
Ntp412
Rp413
(dp414
g384
I-1
sbag0
(g380
g2
Ntp415
Rp416
(dp417
g384
I13
sbag0
(g380
g2
Ntp418
Rp419
(dp420
g384
I-1
sbag0
(g380
g2
Ntp421
Rp422
(dp423
g384
I15
sbag0
(g380
g2
Ntp424
Rp425
(dp426
g384
I-1
sbag0
(g380
g2
Ntp427
Rp428
(dp429
g384
I17
sbag0
(g380
g2
Ntp430
Rp431
(dp432
g384
I-1
sbag0
(g380
g2
Ntp433
Rp434
(dp435
g384
I19
sbag0
(g380
g2
Ntp436
Rp437
(dp438
g384
I-1
sbag0
(g380
g2
Ntp439
Rp440
(dp441
g384
I21
sbag0
(g380
g2
Ntp442
Rp443
(dp444
g384
I-1
sbag0
(g380
g2
Ntp445
Rp446
(dp447
g384
I23
sbag0
(g380
g2
Ntp448
Rp449
(dp450
g384
I-1
sbag0
(g380
g2
Ntp451
Rp452
(dp453
g384
I25
sbag0
(g380
g2
Ntp454
Rp455
(dp456
g384
I-1
sbag0
(g380
g2
Ntp457
Rp458
(dp459
g384
I27
sbag0
(g380
g2
Ntp460
Rp461
(dp462
g384
I-1
sbag0
(g380
g2
Ntp463
Rp464
(dp465
g384
I29
sbag0
(g380
g2
Ntp466
Rp467
(dp468
g384
I-1
sbag0
(g380
g2
Ntp469
Rp470
(dp471
g384
I31
sbag0
(g380
g2
Ntp472
Rp473
(dp474
g384
I-1
sbag0
(g380
g2
Ntp475
Rp476
(dp477
g384
I33
sbag0
(g380
g2
Ntp478
Rp479
(dp480
g384
I-1
sbag0
(g380
g2
Ntp481
Rp482
(dp483
g384
I7
sbag0
(g380
g2
Ntp484
Rp485
(dp486
g384
I-1
sbag0
(g380
g2
Ntp487
Rp488
(dp489
g384
I37
sbag0
(g380
g2
Ntp490
Rp491
(dp492
g384
I-1
sbag0
(g380
g2
Ntp493
Rp494
(dp495
g384
I39
sbag0
(g380
g2
Ntp496
Rp497
(dp498
g384
I-1
sbag0
(g380
g2
Ntp499
Rp500
(dp501
g384
I0
sbag0
(g380
g2
Ntp502
Rp503
(dp504
g384
I-1
sbag0
(g380
g2
Ntp505
Rp506
(dp507
g384
I43
sbag0
(g380
g2
Ntp508
Rp509
(dp510
g384
I-1
sbag0
(g380
g2
Ntp511
Rp512
(dp513
g384
I45
sbag0
(g380
g2
Ntp514
Rp515
(dp516
g384
I-1
sbag0
(g380
g2
Ntp517
Rp518
(dp519
g384
I47
sbag0
(g380
g2
Ntp520
Rp521
(dp522
g384
I-1
sbag0
(g380
g2
Ntp523
Rp524
(dp525
g384
I49
sbag0
(g380
g2
Ntp526
Rp527
(dp528
g384
I-1
sbag0
(g380
g2
Ntp529
Rp530
(dp531
g384
I51
sbag0
(g380
g2
Ntp532
Rp533
(dp534
g384
I-1
sbag0
(g380
g2
Ntp535
Rp536
(dp537
g384
I53
sbag0
(g380
g2
Ntp538
Rp539
(dp540
g384
I-1
sbag0
(g380
g2
Ntp541
Rp542
(dp543
g384
I55
sbag0
(g380
g2
Ntp544
Rp545
(dp546
g384
I-1
sbag0
(g380
g2
Ntp547
Rp548
(dp549
g384
I57
sbag0
(g380
g2
Ntp550
Rp551
(dp552
g384
I-1
sbag0
(g380
g2
Ntp553
Rp554
(dp555
g384
I59
sbag0
(g380
g2
Ntp556
Rp557
(dp558
g384
I-1
sbag0
(g380
g2
Ntp559
Rp560
(dp561
g384
I61
sbag0
(g380
g2
Ntp562
Rp563
(dp564
g384
I-1
sbag0
(g380
g2
Ntp565
Rp566
(dp567
g384
I63
sbag0
(g380
g2
Ntp568
Rp569
(dp570
g384
I-1
sbag0
(g380
g2
Ntp571
Rp572
(dp573
g384
I37
sbag0
(g380
g2
Ntp574
Rp575
(dp576
g384
I-1
sbag0
(g380
g2
Ntp577
Rp578
(dp579
g384
I-1
sbag0
(g380
g2
Ntp580
Rp581
(dp582
g384
I-1
sbag0
(g380
g2
Ntp583
Rp584
(dp585
g384
I-1
sbag0
(g380
g2
Ntp586
Rp587
(dp588
g384
I70
sbag0
(g380
g2
Ntp589
Rp590
(dp591
g384
I-1
sbag0
(g380
g2
Ntp592
Rp593
(dp594
g384
I72
sbag0
(g380
g2
Ntp595
Rp596
(dp597
g384
I-1
sbag0
(g380
g2
Ntp598
Rp599
(dp600
g384
I7
sbag0
(g380
g2
Ntp601
Rp602
(dp603
g384
I-1
sbag0
(g380
g2
Ntp604
Rp605
(dp606
g384
I-1
sbag0
(g380
g2
Ntp607
Rp608
(dp609
g384
I68
sbag0
(g380
g2
Ntp610
Rp611
(dp612
g384
I-1
sbag0
(g380
g2
Ntp613
Rp614
(dp615
g384
I79
sbag0
(g380
g2
Ntp616
Rp617
(dp618
g384
I-1
sbag0
(g380
g2
Ntp619
Rp620
(dp621
g384
I81
sbag0
(g380
g2
Ntp622
Rp623
(dp624
g384
I-1
sbag0
(g380
g2
Ntp625
Rp626
(dp627
g384
I83
sbag0
(g380
g2
Ntp628
Rp629
(dp630
g384
I-1
sbag0
(g380
g2
Ntp631
Rp632
(dp633
g384
I85
sbag0
(g380
g2
Ntp634
Rp635
(dp636
g384
I-1
sbag0
(g380
g2
Ntp637
Rp638
(dp639
g384
I87
sbag0
(g380
g2
Ntp640
Rp641
(dp642
g384
I-1
sbag0
(g380
g2
Ntp643
Rp644
(dp645
g384
I7
sbag0
(g380
g2
Ntp646
Rp647
(dp648
g384
I-1
sbasb.